; Function Attrs: mustprogress nounwind uwtable
define void @_ZN24DecorateRasterProjPluginD0Ev(ptr noundef nonnull align 8 dereferenceable(440) %0) unnamed_addr #4 align 2 {
  tail call void @_ZN24DecorateRasterProjPluginD2Ev(ptr noundef nonnull align 8 dereferenceable(440) %0, ptr noundef nonnull @_ZTT24DecorateRasterProjPlugin) #23
  %2 = getelementptr inbounds i8, ptr %0, i64 440
  store ptr getelementptr inbounds ({ [7 x ptr] }, ptr @_ZTV13MeshLabPlugin, i64 0, i32 0, i64 2), ptr %2, align 8
  %3 = getelementptr inbounds i8, ptr %0, i64 456
  tail call void @_ZN9QFileInfoD1Ev(ptr noundef nonnull align 8 dereferenceable(8) %3) #23
  tail call void @_ZdlPv(ptr noundef nonnull %0) #22
  ret void
}